; Function Attrs: mustprogress uwtable
define hidden void @_ZN6recfun6solver12assert_guardEP4exprRK10ref_vectorIS1_11ast_managerE(ptr noundef nonnull align 8 dereferenceable(268) %this, ptr noundef %pred_applied, ptr nocapture noundef nonnull readonly align 8 dereferenceable(16) %guards) local_unnamed_addr #3 align 2 personality ptr @__gxx_personality_v0 {
invoke.cont:
  %lguards = alloca %class.svector.69, align 8
  store ptr null, ptr %lguards, align 8
  %m_nodes.i = getelementptr inbounds i8, ptr %guards, i64 8
  %0 = load ptr, ptr %m_nodes.i, align 8
  %cmp.i.i.i = icmp eq ptr %0, null
  br i1 %cmp.i.i.i, label %for.end, label %_ZNK15ref_vector_coreI4expr19ref_manager_wrapperIS0_11ast_managerEE3endEv.exit

_ZNK15ref_vector_coreI4expr19ref_manager_wrapperIS0_11ast_managerEE3endEv.exit: ; preds = %invoke.cont
  %arrayidx.i.i.i = getelementptr inbounds i8, ptr %0, i64 -4
  %1 = load i32, ptr %arrayidx.i.i.i, align 4
  %2 = zext i32 %1 to i64
  %add.ptr.i = getelementptr inbounds ptr, ptr %0, i64 %2
  %cmp.not7 = icmp eq i32 %1, 0
  br i1 %cmp.not7, label %for.end, label %for.body

for.body:                                         ; preds = %_ZNK15ref_vector_coreI4expr19ref_manager_wrapperIS0_11ast_managerEE3endEv.exit, %for.inc
  %__begin1.08 = phi ptr [ %incdec.ptr, %for.inc ], [ %0, %_ZNK15ref_vector_coreI4expr19ref_manager_wrapperIS0_11ast_managerEE3endEv.exit ]
  %3 = load ptr, ptr %__begin1.08, align 8
  %call5 = invoke i32 @_ZNK3euf13th_euf_solver10mk_literalEP4expr(ptr noundef nonnull align 8 dereferenceable(108) %this, ptr noundef %3)
          to label %invoke.cont4 unwind label %lpad.loopexit

invoke.cont4:                                     ; preds = %for.body
  %4 = load ptr, ptr %lguards, align 8
  %cmp.i = icmp eq ptr %4, null
  br i1 %cmp.i, label %if.then.i, label %lor.lhs.false.i

lor.lhs.false.i:                                  ; preds = %invoke.cont4
  %arrayidx.i = getelementptr inbounds i8, ptr %4, i64 -4
  %5 = load i32, ptr %arrayidx.i, align 4
  %arrayidx4.i = getelementptr inbounds i8, ptr %4, i64 -8
  %6 = load i32, ptr %arrayidx4.i, align 4
  %cmp5.i = icmp eq i32 %5, %6
  br i1 %cmp5.i, label %if.then.i, label %for.inc

if.then.i:                                        ; preds = %lor.lhs.false.i, %invoke.cont4
  invoke void @_ZN6vectorIN3sat7literalELb0EjE13expand_vectorEv(ptr noundef nonnull align 8 dereferenceable(8) %lguards)
          to label %.noexc unwind label %lpad.loopexit

.noexc:                                           ; preds = %if.then.i
  %.pre.i = load ptr, ptr %lguards, align 8
  %arrayidx8.phi.trans.insert.i = getelementptr inbounds i8, ptr %.pre.i, i64 -4
  %.pre1.i = load i32, ptr %arrayidx8.phi.trans.insert.i, align 4
  br label %for.inc

for.inc:                                          ; preds = %.noexc, %lor.lhs.false.i
  %7 = phi i32 [ %.pre1.i, %.noexc ], [ %5, %lor.lhs.false.i ]
  %8 = phi ptr [ %.pre.i, %.noexc ], [ %4, %lor.lhs.false.i ]
  %idx.ext.i = zext i32 %7 to i64
  %add.ptr.i4 = getelementptr inbounds %"class.sat::literal", ptr %8, i64 %idx.ext.i
  store i32 %call5, ptr %add.ptr.i4, align 4
  %9 = load ptr, ptr %lguards, align 8
  %arrayidx10.i = getelementptr inbounds i8, ptr %9, i64 -4
  %10 = load i32, ptr %arrayidx10.i, align 4
  %inc.i = add i32 %10, 1
  store i32 %inc.i, ptr %arrayidx10.i, align 4
  %incdec.ptr = getelementptr inbounds i8, ptr %__begin1.08, i64 8
  %cmp.not = icmp eq ptr %incdec.ptr, %add.ptr.i
  br i1 %cmp.not, label %for.end, label %for.body

lpad.loopexit:                                    ; preds = %for.body, %if.then.i
  %lpad.loopexit5 = landingpad { ptr, i32 }
          cleanup
  br label %lpad

lpad.loopexit.split-lp:                           ; preds = %for.end, %invoke.cont8
  %lpad.loopexit.split-lp6 = landingpad { ptr, i32 }
          cleanup
  br label %lpad

lpad:                                             ; preds = %lpad.loopexit.split-lp, %lpad.loopexit
  %lpad.phi = phi { ptr, i32 } [ %lpad.loopexit5, %lpad.loopexit ], [ %lpad.loopexit.split-lp6, %lpad.loopexit.split-lp ]
  call void @_ZN7svectorIN3sat7literalEjED2Ev(ptr noundef nonnull align 8 dereferenceable(8) %lguards) #23
  resume { ptr, i32 } %lpad.phi

for.end:                                          ; preds = %for.inc, %invoke.cont, %_ZNK15ref_vector_coreI4expr19ref_manager_wrapperIS0_11ast_managerEE3endEv.exit
  %call9 = invoke i32 @_ZNK3euf13th_euf_solver10mk_literalEP4expr(ptr noundef nonnull align 8 dereferenceable(108) %this, ptr noundef %pred_applied)
          to label %invoke.cont8 unwind label %lpad.loopexit.split-lp

invoke.cont8:                                     ; preds = %for.end
  invoke void @_ZN3euf13th_euf_solver13add_equiv_andEN3sat7literalERK7svectorIS2_jE(ptr noundef nonnull align 8 dereferenceable(108) %this, i32 %call9, ptr noundef nonnull align 8 dereferenceable(8) %lguards)
          to label %invoke.cont12 unwind label %lpad.loopexit.split-lp

invoke.cont12:                                    ; preds = %invoke.cont8
  %11 = load ptr, ptr %lguards, align 8
  %tobool.not.i.i.i = icmp eq ptr %11, null
  br i1 %tobool.not.i.i.i, label %_ZN7svectorIN3sat7literalEjED2Ev.exit, label %if.then.i.i.i

if.then.i.i.i:                                    ; preds = %invoke.cont12
  %add.ptr.i.i.i.i = getelementptr inbounds i8, ptr %11, i64 -8
  invoke void @_ZN6memory10deallocateEPv(ptr noundef nonnull %add.ptr.i.i.i.i)
          to label %_ZN7svectorIN3sat7literalEjED2Ev.exit unwind label %terminate.lpad.i.i

terminate.lpad.i.i:                               ; preds = %if.then.i.i.i
  %12 = landingpad { ptr, i32 }
          catch ptr null
  %13 = extractvalue { ptr, i32 } %12, 0
  call void @__clang_call_terminate(ptr %13) #24
  unreachable

_ZN7svectorIN3sat7literalEjED2Ev.exit:            ; preds = %invoke.cont12, %if.then.i.i.i
  ret void
}